; Function Attrs: mustprogress nofree norecurse nosync nounwind willreturn memory(argmem: read) uwtable
define dso_local { <2 x float>, <2 x float> } @_ZN30btKinematicCharacterController17parallelComponentERK9btVector3S2_(ptr nocapture noundef nonnull readnone align 8 dereferenceable(319) %this, ptr nocapture noundef nonnull readonly align 4 dereferenceable(16) %direction, ptr nocapture noundef nonnull readonly align 4 dereferenceable(16) %normal) local_unnamed_addr #0 align 2 {
entry:
  %0 = load float, ptr %direction, align 4
  %arrayidx5.i = getelementptr inbounds i8, ptr %direction, i64 4
  %1 = load float, ptr %arrayidx5.i, align 4
  %arrayidx10.i = getelementptr inbounds i8, ptr %direction, i64 8
  %2 = load float, ptr %arrayidx10.i, align 4
  %arrayidx12.i = getelementptr inbounds i8, ptr %normal, i64 8
  %3 = load float, ptr %arrayidx12.i, align 4
  %4 = load <2 x float>, ptr %normal, align 4
  %5 = extractelement <2 x float> %4, i64 1
  %mul8.i = fmul float %1, %5
  %6 = extractelement <2 x float> %4, i64 0
  %7 = tail call float @llvm.fmuladd.f32(float %0, float %6, float %mul8.i)
  %8 = tail call noundef float @llvm.fmuladd.f32(float %2, float %3, float %7)
  %9 = insertelement <2 x float> poison, float %8, i64 0
  %10 = shufflevector <2 x float> %9, <2 x float> poison, <2 x i32> zeroinitializer
  %11 = fmul <2 x float> %4, %10
  %mul8.i3 = fmul float %3, %8
  %retval.sroa.3.12.vec.insert.i = insertelement <2 x float> <float poison, float 0.000000e+00>, float %mul8.i3, i64 0
  %.fca.0.insert.i = insertvalue { <2 x float>, <2 x float> } poison, <2 x float> %11, 0
  %.fca.1.insert.i = insertvalue { <2 x float>, <2 x float> } %.fca.0.insert.i, <2 x float> %retval.sroa.3.12.vec.insert.i, 1
  ret { <2 x float>, <2 x float> } %.fca.1.insert.i
}